(dp0
S'http://technews.tw/category/tablet/page/3/'
p1
(lp2
Vhttp://technews.tw/2015/11/20/tablets-with-pre-installed-trojan-being-sold-on-amazonnotebook/
p3
aVhttp://technews.tw/2015/11/20/tablet-japan-apple-ipad-asus/
p4
aVhttp://technews.tw/2015/11/19/some-apple-ipad-pro-units-become-unresponsive-while-charging/
p5
aVhttp://technews.tw/2015/11/18/apple-sim-gains-japanese-network-support-through-kddis-au-brand/
p6
aVhttp://technews.tw/2015/11/17/big-screen-smart-phone-tablet/
p7
aVhttp://technews.tw/2015/11/16/tim-cook-mac-ipad-can-not-be-integrate/
p8
aVhttp://technews.tw/2015/11/16/tsmc-ipad-pro-a9x/
p9
aVhttp://technews.tw/2015/11/16/smart-phone-tablet-fragment-attack/
p10
aVhttp://technews.tw/2015/11/13/apple-invention-uses-electrodes-to-dry-out-wet-iphone-innards/
p11
aVhttp://technews.tw/2015/11/13/a9x-intel-tsmc/
p12
aVhttp://technews.tw/2015/11/12/can-ipad-pro-really-replace-anything/
p13
aVhttp://technews.tw/2015/11/10/tim-cook-ipad-pro/
p14
aVhttp://technews.tw/2015/11/09/12-9-inch-ipad-pro-available-to-order-online-wednesday-arrives-in-stores-later-this-week/
p15
aVhttp://technews.tw/2015/11/09/apples-most-popular-ipad-was-released-when-steve-jobs-was-still-alive/
p16
aVhttp://technews.tw/2015/11/09/gartner-tablet-in-one-year/
p17
aVhttp://technews.tw/2015/11/01/apple-ipad-pro-release-date/
p18
aVhttp://technews.tw/2015/10/30/tablet-2015q3-market-occupancy/
p19
aVhttp://technews.tw/2015/10/29/new-copyright-exemptions-mean-you-can-hack-your-own-car-and-jailbreak-your-tablets/
p20
aVhttp://technews.tw/2015/10/27/tim-cook-took-ipad-pro-to-write-calligraphy/
p21
aVhttp://technews.tw/2015/10/23/zenfone3-usb-type-c/
p22
asS'http://technews.tw/category/tablet/page/2/'
p23
(lp24
Vhttp://technews.tw/2016/01/05/jolla-nokia-2016/
p25
aVhttp://technews.tw/2016/01/04/google-new-nexus-7-tsmc-kirin-950/
p26
aVhttp://technews.tw/2015/12/25/phonearena-reader-awards-2015/
p27
aVhttp://technews.tw/2015/12/23/ipad-pro-in-china-first-month/
p28
aVhttp://technews.tw/2015/12/16/pad-air-3-will-announce-in-2016/
p29
aVhttp://technews.tw/2015/12/15/unitech-new-products-information-technology/
p30
aVhttp://technews.tw/2015/12/15/detachable-tablet-taiwan/
p31
aVhttp://technews.tw/2015/12/09/apple-big-screen-ipad-pro/
p32
aVhttp://technews.tw/2015/12/07/microsoft-beats-apple-in-online-tablet-sales/
p33
aVhttp://technews.tw/2015/12/03/tablet-pcs-japanese-market/
p34
aVhttp://technews.tw/2015/12/03/microsoft-surface-phone-2016-maybe/
p35
aVhttp://technews.tw/2015/12/02/new-nexus-7-huawei/
p36
aVhttp://technews.tw/2015/12/01/2016-notebook-up/
p37
aVhttp://technews.tw/2015/12/01/apple-a9x-cpu-gpu-tsmc/
p38
aVhttp://technews.tw/2015/11/30/receipts-data-7-inch-amazon-fire-tablet-not-ipad-won-black-friday/
p39
aVhttp://technews.tw/2015/11/30/apple-in-black-friday/
p40
aVhttp://technews.tw/2015/11/26/asus-android-tablet-japan/
p41
aVhttp://technews.tw/2015/11/26/2016-big-size-panel/
p42
aVhttp://technews.tw/2015/11/25/microsoft-surface-market-occupancy-2015/
p43
aVhttp://technews.tw/2015/11/25/ipad-pro-apple-pencil/
p44
asS'http://technews.tw/category/tablet/page/1/'
p45
(lp46
Vhttp://technews.tw/2016/02/04/google-bans-adblock-fast-for-samsung/
p47
aVhttp://technews.tw/2016/02/04/apple-eyes-march-15-event-for-iphone-5se-ipad-air-3-apple-watch-updates/
p48
aVhttp://technews.tw/2016/02/03/samsung-internet-content-block/
p49
aVhttp://technews.tw/2016/02/02/sony-might-be-quit-tablet-market/
p50
aVhttp://technews.tw/2016/02/02/google-design-nexus-by-itself/
p51
aVhttp://technews.tw/2016/02/02/ipad-pro-beat-microsoft-surface/
p52
aVhttp://technews.tw/2016/01/28/ipad-air-march-apple-pencil/
p53
aVhttp://technews.tw/2016/01/28/d-link-camera-home/
p54
aVhttp://technews.tw/2016/01/27/tablet-shipment-2015/
p55
aVhttp://technews.tw/2016/01/27/microsoft-surface-nfl/
p56
aVhttp://technews.tw/2016/01/26/kgi-iphone-ipad-macbook-2016/
p57
aVhttp://technews.tw/2016/01/22/ipad-mini-tablet-popular/
p58
aVhttp://technews.tw/2016/01/21/worldwide-device-shipments-in-2016/
p59
aVhttp://technews.tw/2016/01/15/mipi-uniprosm-chip/
p60
aVhttp://technews.tw/2016/01/15/ist-ota-lab-taipei-ctia/
p61
aVhttp://technews.tw/2016/01/15/braille-tablet/
p62
aVhttp://technews.tw/2016/01/14/samsung-galaxy-view/
p63
aVhttp://technews.tw/2016/01/07/ces-2016-dxo-one-iphone-camera/
p64
aVhttp://technews.tw/2016/01/06/ces-2016-cta-forecast/
p65
aVhttp://technews.tw/2016/01/06/ces-2016-samsung/
p66
as.