(dp0
S'http://technews.tw/category/tablet/page/38/'
p1
(lp2
Vhttp://technews.tw/2013/02/19/countdown-of-ubuntu-tablet/
p3
aVhttp://technews.tw/2013/02/19/surface-6/
p4
aVhttp://technews.tw/2013/02/06/ipadmini-2/
p5
aVhttp://technews.tw/2013/02/05/ios-6-xjb/
p6
aVhttp://technews.tw/2013/02/04/ipad-3/
p7
aVhttp://technews.tw/2013/02/04/idc-2013p-for3/
p8
aVhttp://technews.tw/2013/01/31/u-s_tablet_consumer/
p9
aVhttp://technews.tw/2013/01/31/ios-6ponit1-jb-tool-is-coming/
p10
aVhttp://technews.tw/2013/01/30/ipad-2/
p11
aVhttp://technews.tw/2013/01/30/amazon/
p12
aVhttp://technews.tw/2013/01/29/iphone5-5/
p13
aVhttp://technews.tw/2013/01/29/intel-strategy/
p14
aVhttp://technews.tw/2013/01/28/ipad3-3years/
p15
aVhttp://technews.tw/2013/01/28/amazon-android-table/
p16
aVhttp://technews.tw/2013/01/28/msi-enjoy-71/
p17
aVhttp://technews.tw/2013/01/28/next-iphone-128gb/
p18
aVhttp://technews.tw/2013/01/28/surface-5/
p19
aVhttp://technews.tw/2013/01/23/surface-4/
p20
aVhttp://technews.tw/2013/01/22/surface-pro/
p21
aVhttp://technews.tw/2013/01/22/sony/
p22
asS'http://technews.tw/category/tablet/page/37/'
p23
(lp24
Vhttp://technews.tw/2013/03/12/ios-early-prototype/
p25
aVhttp://technews.tw/2013/03/08/samsung_smartphone_supplychain/
p26
aVhttp://technews.tw/2013/03/08/spces-evolution/
p27
aVhttp://technews.tw/2013/03/07/iphone5-6/
p28
aVhttp://technews.tw/2013/03/06/asus/
p29
aVhttp://technews.tw/2013/03/05/ipad-5/
p30
aVhttp://technews.tw/2013/03/04/ipad-4/
p31
aVhttp://technews.tw/2013/03/01/ipad-mini-3/
p32
aVhttp://technews.tw/2013/02/27/hp-2/
p33
aVhttp://technews.tw/2013/02/27/2012mobile_review/
p34
aVhttp://technews.tw/2013/02/27/good-technology-report-apple-still-dominated-enterprize-market/
p35
aVhttp://technews.tw/2013/02/25/hp-andrid-slate-7/
p36
aVhttp://technews.tw/2013/02/25/smasung-galaxy-note-8-0/
p37
aVhttp://technews.tw/2013/02/23/communities-dominate-brands/
p38
aVhttp://technews.tw/2013/02/22/samsung-13/
p39
aVhttp://technews.tw/2013/02/20/pcx-for-work-tablets-for-rest/
p40
aVhttp://technews.tw/2013/02/20/ipadmini-3/
p41
aVhttp://technews.tw/2013/02/19/no-big-screen-iphone-until-2014/
p42
aVhttp://technews.tw/2013/02/19/ipad-mini-retina-bom-rise-up/
p43
aVhttp://technews.tw/2013/02/19/countdown-of-ubuntu-tablet/
p44
as.