(lp0
Vhttp://technews.tw/2016/01/26/kgi-iphone-ipad-macbook-2016/
p1
aVhttp://technews.tw/2016/01/22/ipad-mini-tablet-popular/
p2
aVhttp://technews.tw/2016/01/21/worldwide-device-shipments-in-2016/
p3
aVhttp://technews.tw/2016/01/15/mipi-uniprosm-chip/
p4
aVhttp://technews.tw/2016/01/15/ist-ota-lab-taipei-ctia/
p5
aVhttp://technews.tw/2016/01/15/braille-tablet/
p6
aVhttp://technews.tw/2016/01/14/samsung-galaxy-view/
p7
aVhttp://technews.tw/2016/01/07/ces-2016-dxo-one-iphone-camera/
p8
aVhttp://technews.tw/2016/01/06/ces-2016-cta-forecast/
p9
aVhttp://technews.tw/2016/01/06/ces-2016-samsung/
p10
aVhttp://technews.tw/2016/01/05/jolla-nokia-2016/
p11
aVhttp://technews.tw/2016/01/04/google-new-nexus-7-tsmc-kirin-950/
p12
aVhttp://technews.tw/2015/12/25/phonearena-reader-awards-2015/
p13
aVhttp://technews.tw/2015/12/23/ipad-pro-in-china-first-month/
p14
aVhttp://technews.tw/2015/12/16/pad-air-3-will-announce-in-2016/
p15
aVhttp://technews.tw/2015/12/15/unitech-new-products-information-technology/
p16
aVhttp://technews.tw/2015/12/15/detachable-tablet-taiwan/
p17
aVhttp://technews.tw/2015/12/09/apple-big-screen-ipad-pro/
p18
aVhttp://technews.tw/2015/12/07/microsoft-beats-apple-in-online-tablet-sales/
p19
aVhttp://technews.tw/2015/12/03/tablet-pcs-japanese-market/
p20
a.