(lp0
Vhttp://technews.tw/2013/01/31/ios-6ponit1-jb-tool-is-coming/
p1
aVhttp://technews.tw/2013/01/30/ipad-2/
p2
aVhttp://technews.tw/2013/01/30/amazon/
p3
aVhttp://technews.tw/2013/01/29/iphone5-5/
p4
aVhttp://technews.tw/2013/01/29/intel-strategy/
p5
aVhttp://technews.tw/2013/01/28/ipad3-3years/
p6
aVhttp://technews.tw/2013/01/28/amazon-android-table/
p7
aVhttp://technews.tw/2013/01/28/msi-enjoy-71/
p8
aVhttp://technews.tw/2013/01/28/next-iphone-128gb/
p9
aVhttp://technews.tw/2013/01/28/surface-5/
p10
aVhttp://technews.tw/2013/01/23/surface-4/
p11
aVhttp://technews.tw/2013/01/22/surface-pro/
p12
aVhttp://technews.tw/2013/01/22/sony/
p13
aVhttp://technews.tw/2013/01/22/samsung-8/
p14
aVhttp://technews.tw/2013/01/21/sharp-cut-9-7-ipad-screen/
p15
aVhttp://technews.tw/2013/01/17/ipad-5-looks-like/
p16
aVhttp://technews.tw/2013/01/17/microsoft-surface-pro-10-things/
p17
aVhttp://technews.tw/2013/01/16/kgi-apple-roadmap-2013/
p18
aVhttp://technews.tw/2013/01/15/surface-3/
p19
aVhttp://technews.tw/2013/01/14/ipad-mini-comes-to-mainstream/
p20
a.