(dp0
S'ground_truth'
p1
(lp2
(lp3
Vhttp://www.bnext.com.tw/article/view/id/8758
p4
aVhttp://www.bnext.com.tw/article/view/id/8757
p5
aVhttp://www.bnext.com.tw/article/view/id/8756
p6
aVhttp://www.bnext.com.tw/article/view/id/8755
p7
aVhttp://www.bnext.com.tw/article/view/id/8748
p8
aVhttp://www.bnext.com.tw/article/view/id/8747
p9
aVhttp://www.bnext.com.tw/article/view/id/8744
p10
aVhttp://www.bnext.com.tw/article/view/id/8866
p11
aVhttp://www.bnext.com.tw/article/view/id/8863
p12
aVhttp://www.bnext.com.tw/article/view/id/8860
p13
aVhttp://www.bnext.com.tw/article/view/id/8849
p14
aVhttp://www.bnext.com.tw/article/view/id/8837
p15
aVhttp://www.bnext.com.tw/article/view/id/8836
p16
aVhttp://www.bnext.com.tw/article/view/id/8831
p17
aVhttp://www.bnext.com.tw/article/view/id/8830
p18
aVhttp://www.bnext.com.tw/article/view/id/8829
p19
aVhttp://www.bnext.com.tw/article/view/id/8828
p20
aVhttp://www.bnext.com.tw/article/view/id/8827
p21
aVhttp://www.bnext.com.tw/article/view/id/8826
p22
aVhttp://www.bnext.com.tw/article/view/id/8825
p23
aVhttp://www.bnext.com.tw/article/view/id/8824
p24
aVhttp://www.bnext.com.tw/article/view/id/8823
p25
aVhttp://www.bnext.com.tw/article/view/id/8812
p26
aVhttp://www.bnext.com.tw/article/view/id/8896
p27
aVhttp://www.bnext.com.tw/article/view/id/8895
p28
aVhttp://www.bnext.com.tw/article/view/id/8894
p29
aVhttp://www.bnext.com.tw/article/view/id/8893
p30
aVhttp://www.bnext.com.tw/article/view/id/8892
p31
aVhttp://www.bnext.com.tw/article/view/id/8891
p32
aVhttp://www.bnext.com.tw/article/view/id/8890
p33
aVhttp://www.bnext.com.tw/article/view/id/8889
p34
aVhttp://www.bnext.com.tw/article/view/id/8888
p35
aVhttp://www.bnext.com.tw/article/view/id/8887
p36
aVhttp://www.bnext.com.tw/article/view/id/8886
p37
aVhttp://www.bnext.com.tw/article/view/id/8885
p38
aVhttp://www.bnext.com.tw/article/view/id/8884
p39
aVhttp://www.bnext.com.tw/article/view/id/8883
p40
aVhttp://www.bnext.com.tw/article/view/id/8882
p41
aVhttp://www.bnext.com.tw/article/view/id/8876
p42
aVhttp://www.bnext.com.tw/article/view/id/33020
p43
aasS'ground_input'
p44
(lp45
S'http://www.bnext.com.tw/categories/internet/'
p46
asS'generating_time'
p47
cdatetime
datetime
p48
(S'\x07\xe0\x01\x13\x0e\x0e9\x03r\xd0'
p49
tp50
Rp51
s.