(dp0
S'ground_truth'
p1
(lp2
(lp3
Vhttp://www.bnext.com.tw/article/view/id/8758
p4
aVhttp://www.bnext.com.tw/article/view/id/8757
p5
aVhttp://www.bnext.com.tw/article/view/id/8756
p6
aVhttp://www.bnext.com.tw/article/view/id/8755
p7
aVhttp://www.bnext.com.tw/article/view/id/8748
p8
aVhttp://www.bnext.com.tw/article/view/id/8747
p9
aVhttp://www.bnext.com.tw/article/view/id/8744
p10
aVhttp://www.bnext.com.tw/article/view/id/8866
p11
aVhttp://www.bnext.com.tw/article/view/id/8863
p12
aVhttp://www.bnext.com.tw/article/view/id/8860
p13
aVhttp://www.bnext.com.tw/article/view/id/8849
p14
aVhttp://www.bnext.com.tw/article/view/id/8837
p15
aVhttp://www.bnext.com.tw/article/view/id/8836
p16
aVhttp://www.bnext.com.tw/article/view/id/8831
p17
aVhttp://www.bnext.com.tw/article/view/id/8830
p18
aVhttp://www.bnext.com.tw/article/view/id/8829
p19
aVhttp://www.bnext.com.tw/article/view/id/8828
p20
aVhttp://www.bnext.com.tw/article/view/id/8827
p21
aVhttp://www.bnext.com.tw/article/view/id/8826
p22
aVhttp://www.bnext.com.tw/article/view/id/8825
p23
aVhttp://www.bnext.com.tw/article/view/id/8824
p24
aVhttp://www.bnext.com.tw/article/view/id/8823
p25
aVhttp://www.bnext.com.tw/article/view/id/8812
p26
aVhttp://www.bnext.com.tw/article/view/id/8896
p27
aVhttp://www.bnext.com.tw/article/view/id/8895
p28
aVhttp://www.bnext.com.tw/article/view/id/8894
p29
aVhttp://www.bnext.com.tw/article/view/id/8893
p30
aVhttp://www.bnext.com.tw/article/view/id/8892
p31
aVhttp://www.bnext.com.tw/article/view/id/8891
p32
aVhttp://www.bnext.com.tw/article/view/id/8890
p33
aVhttp://www.bnext.com.tw/article/view/id/8889
p34
aVhttp://www.bnext.com.tw/article/view/id/8888
p35
aVhttp://www.bnext.com.tw/article/view/id/8887
p36
aVhttp://www.bnext.com.tw/article/view/id/8886
p37
aVhttp://www.bnext.com.tw/article/view/id/8885
p38
aVhttp://www.bnext.com.tw/article/view/id/8884
p39
aVhttp://www.bnext.com.tw/article/view/id/8883
p40
aVhttp://www.bnext.com.tw/article/view/id/8882
p41
aVhttp://www.bnext.com.tw/article/view/id/8876
p42
aVhttp://www.bnext.com.tw/article/view/id/33020
p43
aa(lp44
Vhttp://www.bnext.com.tw/article/view/id/8851
p45
aVhttp://www.bnext.com.tw/article/view/id/8850
p46
aVhttp://www.bnext.com.tw/article/view/id/8849
p47
aVhttp://www.bnext.com.tw/article/view/id/8848
p48
aVhttp://www.bnext.com.tw/article/view/id/8846
p49
aVhttp://www.bnext.com.tw/article/view/id/8845
p50
aVhttp://www.bnext.com.tw/article/view/id/8844
p51
aVhttp://www.bnext.com.tw/article/view/id/8842
p52
aVhttp://www.bnext.com.tw/article/view/id/8841
p53
aVhttp://www.bnext.com.tw/article/view/id/8840
p54
aVhttp://www.bnext.com.tw/article/view/id/8838
p55
aVhttp://www.bnext.com.tw/article/view/id/8832
p56
aVhttp://www.bnext.com.tw/article/view/id/8820
p57
aVhttp://www.bnext.com.tw/article/view/id/8817
p58
aVhttp://www.bnext.com.tw/article/view/id/8816
p59
aVhttp://www.bnext.com.tw/article/view/id/8815
p60
aVhttp://www.bnext.com.tw/article/view/id/8814
p61
aVhttp://www.bnext.com.tw/article/view/id/8813
p62
aVhttp://www.bnext.com.tw/article/view/id/8811
p63
aVhttp://www.bnext.com.tw/article/view/id/8810
p64
aVhttp://www.bnext.com.tw/article/view/id/8918
p65
aVhttp://www.bnext.com.tw/article/view/id/8917
p66
aVhttp://www.bnext.com.tw/article/view/id/8916
p67
aVhttp://www.bnext.com.tw/article/view/id/8915
p68
aVhttp://www.bnext.com.tw/article/view/id/8909
p69
aVhttp://www.bnext.com.tw/article/view/id/8905
p70
aVhttp://www.bnext.com.tw/article/view/id/8904
p71
aVhttp://www.bnext.com.tw/article/view/id/8903
p72
aVhttp://www.bnext.com.tw/article/view/id/8902
p73
aVhttp://www.bnext.com.tw/article/view/id/8901
p74
aVhttp://www.bnext.com.tw/article/view/id/8900
p75
aVhttp://www.bnext.com.tw/article/view/id/8899
p76
aVhttp://www.bnext.com.tw/article/view/id/8898
p77
aVhttp://www.bnext.com.tw/article/view/id/8897
p78
aVhttp://www.bnext.com.tw/article/view/id/8877
p79
aVhttp://www.bnext.com.tw/article/view/id/8875
p80
aVhttp://www.bnext.com.tw/article/view/id/8873
p81
aVhttp://www.bnext.com.tw/article/view/id/8870
p82
aVhttp://www.bnext.com.tw/article/view/id/11973
p83
aVhttp://www.bnext.com.tw/article/view/id/34885
p84
aa(lp85
Vhttp://www.bnext.com.tw/article/view/id/11026
p86
aVhttp://www.bnext.com.tw/article/view/id/4899
p87
aVhttp://www.bnext.com.tw/article/view/id/6910
p88
aVhttp://www.bnext.com.tw/article/view/id/6897
p89
aVhttp://www.bnext.com.tw/article/view/id/9894
p90
aVhttp://www.bnext.com.tw/article/view/id/4339
p91
aVhttp://www.bnext.com.tw/article/view/id/10017
p92
aVhttp://www.bnext.com.tw/article/view/id/11011
p93
aVhttp://www.bnext.com.tw/article/view/id/11010
p94
aVhttp://www.bnext.com.tw/article/view/id/3653
p95
aVhttp://www.bnext.com.tw/article/view/id/3654
p96
aVhttp://www.bnext.com.tw/article/view/id/10998
p97
aVhttp://www.bnext.com.tw/article/view/id/11001
p98
aVhttp://www.bnext.com.tw/article/view/id/10994
p99
aVhttp://www.bnext.com.tw/article/view/id/10996
p100
aVhttp://www.bnext.com.tw/article/view/id/10123
p101
aVhttp://www.bnext.com.tw/article/view/id/10995
p102
aVhttp://www.bnext.com.tw/article/view/id/3032
p103
aVhttp://www.bnext.com.tw/article/view/id/3127
p104
aVhttp://www.bnext.com.tw/article/view/id/10999
p105
aVhttp://www.bnext.com.tw/article/view/id/3604
p106
aVhttp://www.bnext.com.tw/article/view/id/3601
p107
aVhttp://www.bnext.com.tw/article/view/id/3887
p108
aVhttp://www.bnext.com.tw/article/view/id/4091
p109
aVhttp://www.bnext.com.tw/article/view/id/4505
p110
aVhttp://www.bnext.com.tw/article/view/id/10997
p111
aVhttp://www.bnext.com.tw/article/view/id/5923
p112
aVhttp://www.bnext.com.tw/article/view/id/5968
p113
aVhttp://www.bnext.com.tw/article/view/id/6098
p114
aVhttp://www.bnext.com.tw/article/view/id/6094
p115
aVhttp://www.bnext.com.tw/article/view/id/6092
p116
aVhttp://www.bnext.com.tw/article/view/id/6271
p117
aVhttp://www.bnext.com.tw/article/view/id/7026
p118
aVhttp://www.bnext.com.tw/article/view/id/7297
p119
aVhttp://www.bnext.com.tw/article/view/id/7949
p120
aVhttp://www.bnext.com.tw/article/view/id/7984
p121
aVhttp://www.bnext.com.tw/article/view/id/8671
p122
aVhttp://www.bnext.com.tw/article/view/id/8840
p123
aVhttp://www.bnext.com.tw/article/view/id/8808
p124
aVhttp://www.bnext.com.tw/article/view/id/8892
p125
aa(lp126
Vhttp://www.bnext.com.tw/article/view/id/12821
p127
aVhttp://www.bnext.com.tw/article/view/id/12820
p128
aVhttp://www.bnext.com.tw/article/view/id/12797
p129
aVhttp://www.bnext.com.tw/article/view/id/12767
p130
aVhttp://www.bnext.com.tw/article/view/id/12763
p131
aVhttp://www.bnext.com.tw/article/view/id/12752
p132
aVhttp://www.bnext.com.tw/article/view/id/12711
p133
aVhttp://www.bnext.com.tw/article/view/id/12728
p134
aVhttp://www.bnext.com.tw/article/view/id/12719
p135
aVhttp://www.bnext.com.tw/article/view/id/12700
p136
aVhttp://www.bnext.com.tw/article/view/id/12692
p137
aVhttp://www.bnext.com.tw/article/view/id/12672
p138
aVhttp://www.bnext.com.tw/article/view/id/12665
p139
aVhttp://www.bnext.com.tw/article/view/id/12656
p140
aVhttp://www.bnext.com.tw/article/view/id/12653
p141
aVhttp://www.bnext.com.tw/article/view/id/12632
p142
aVhttp://www.bnext.com.tw/article/view/id/2373
p143
aVhttp://www.bnext.com.tw/article/view/id/2324
p144
aVhttp://www.bnext.com.tw/article/view/id/2319
p145
aVhttp://www.bnext.com.tw/article/view/id/11947
p146
aVhttp://www.bnext.com.tw/article/view/id/9196
p147
aVhttp://www.bnext.com.tw/article/view/id/9762
p148
aVhttp://www.bnext.com.tw/article/view/id/9691
p149
aVhttp://www.bnext.com.tw/article/view/id/9632
p150
aVhttp://www.bnext.com.tw/article/view/id/9988
p151
aVhttp://www.bnext.com.tw/article/view/id/4134
p152
aVhttp://www.bnext.com.tw/article/view/id/2677
p153
aVhttp://www.bnext.com.tw/article/view/id/2602
p154
aVhttp://www.bnext.com.tw/article/view/id/2601
p155
aVhttp://www.bnext.com.tw/article/view/id/2600
p156
aVhttp://www.bnext.com.tw/article/view/id/2598
p157
aVhttp://www.bnext.com.tw/article/view/id/2597
p158
aVhttp://www.bnext.com.tw/article/view/id/2596
p159
aVhttp://www.bnext.com.tw/article/view/id/2489
p160
aVhttp://www.bnext.com.tw/article/view/id/2579
p161
aVhttp://www.bnext.com.tw/article/view/id/2524
p162
aVhttp://www.bnext.com.tw/article/view/id/4476
p163
aVhttp://www.bnext.com.tw/article/view/id/7940
p164
aVhttp://www.bnext.com.tw/article/view/id/8068
p165
aVhttp://www.bnext.com.tw/article/view/id/11972
p166
aa(lp167
Vhttp://www.bnext.com.tw/article/view/id/8694
p168
aVhttp://www.bnext.com.tw/article/view/id/8787
p169
aVhttp://www.bnext.com.tw/article/view/id/8786
p170
aVhttp://www.bnext.com.tw/article/view/id/8785
p171
aVhttp://www.bnext.com.tw/article/view/id/8775
p172
aVhttp://www.bnext.com.tw/article/view/id/8772
p173
aVhttp://www.bnext.com.tw/article/view/id/8756
p174
aVhttp://www.bnext.com.tw/article/view/id/8755
p175
aVhttp://www.bnext.com.tw/article/view/id/8752
p176
aVhttp://www.bnext.com.tw/article/view/id/8751
p177
aVhttp://www.bnext.com.tw/article/view/id/8743
p178
aVhttp://www.bnext.com.tw/article/view/id/8862
p179
aVhttp://www.bnext.com.tw/article/view/id/8861
p180
aVhttp://www.bnext.com.tw/article/view/id/8860
p181
aVhttp://www.bnext.com.tw/article/view/id/8855
p182
aVhttp://www.bnext.com.tw/article/view/id/8854
p183
aVhttp://www.bnext.com.tw/article/view/id/8847
p184
aVhttp://www.bnext.com.tw/article/view/id/8839
p185
aVhttp://www.bnext.com.tw/article/view/id/8835
p186
aVhttp://www.bnext.com.tw/article/view/id/8830
p187
aVhttp://www.bnext.com.tw/article/view/id/8822
p188
aVhttp://www.bnext.com.tw/article/view/id/8821
p189
aVhttp://www.bnext.com.tw/article/view/id/8820
p190
aVhttp://www.bnext.com.tw/article/view/id/8808
p191
aVhttp://www.bnext.com.tw/article/view/id/8918
p192
aVhttp://www.bnext.com.tw/article/view/id/8917
p193
aVhttp://www.bnext.com.tw/article/view/id/8916
p194
aVhttp://www.bnext.com.tw/article/view/id/8914
p195
aVhttp://www.bnext.com.tw/article/view/id/8913
p196
aVhttp://www.bnext.com.tw/article/view/id/8912
p197
aVhttp://www.bnext.com.tw/article/view/id/8911
p198
aVhttp://www.bnext.com.tw/article/view/id/8910
p199
aVhttp://www.bnext.com.tw/article/view/id/8908
p200
aVhttp://www.bnext.com.tw/article/view/id/8907
p201
aVhttp://www.bnext.com.tw/article/view/id/8906
p202
aVhttp://www.bnext.com.tw/article/view/id/8874
p203
aVhttp://www.bnext.com.tw/article/view/id/8872
p204
aVhttp://www.bnext.com.tw/article/view/id/8871
p205
aVhttp://www.bnext.com.tw/article/view/id/8868
p206
aVhttp://www.bnext.com.tw/column/view/id/35055
p207
aa(lp208
Vhttp://www.bnext.com.tw/article/view/id/5699
p209
aVhttp://www.bnext.com.tw/article/view/id/5738
p210
aVhttp://www.bnext.com.tw/article/view/id/5780
p211
aVhttp://www.bnext.com.tw/article/view/id/5832
p212
aVhttp://www.bnext.com.tw/article/view/id/5828
p213
aVhttp://www.bnext.com.tw/article/view/id/5873
p214
aVhttp://www.bnext.com.tw/article/view/id/5869
p215
aVhttp://www.bnext.com.tw/article/view/id/5868
p216
aVhttp://www.bnext.com.tw/article/view/id/5867
p217
aVhttp://www.bnext.com.tw/article/view/id/5866
p218
aVhttp://www.bnext.com.tw/article/view/id/5865
p219
aVhttp://www.bnext.com.tw/article/view/id/5913
p220
aVhttp://www.bnext.com.tw/article/view/id/5980
p221
aVhttp://www.bnext.com.tw/article/view/id/5979
p222
aVhttp://www.bnext.com.tw/article/view/id/5956
p223
aVhttp://www.bnext.com.tw/article/view/id/6227
p224
aVhttp://www.bnext.com.tw/article/view/id/6236
p225
aVhttp://www.bnext.com.tw/article/view/id/6357
p226
aVhttp://www.bnext.com.tw/article/view/id/6391
p227
aVhttp://www.bnext.com.tw/article/view/id/6446
p228
aVhttp://www.bnext.com.tw/article/view/id/6443
p229
aVhttp://www.bnext.com.tw/article/view/id/6438
p230
aVhttp://www.bnext.com.tw/article/view/id/6436
p231
aVhttp://www.bnext.com.tw/article/view/id/6571
p232
aVhttp://www.bnext.com.tw/article/view/id/6753
p233
aVhttp://www.bnext.com.tw/article/view/id/6752
p234
aVhttp://www.bnext.com.tw/article/view/id/6798
p235
aVhttp://www.bnext.com.tw/article/view/id/6797
p236
aVhttp://www.bnext.com.tw/article/view/id/6972
p237
aVhttp://www.bnext.com.tw/article/view/id/6963
p238
aVhttp://www.bnext.com.tw/article/view/id/6962
p239
aVhttp://www.bnext.com.tw/article/view/id/6961
p240
aVhttp://www.bnext.com.tw/article/view/id/6960
p241
aVhttp://www.bnext.com.tw/article/view/id/6959
p242
aVhttp://www.bnext.com.tw/article/view/id/6949
p243
aVhttp://www.bnext.com.tw/article/view/id/7003
p244
aVhttp://www.bnext.com.tw/article/view/id/7035
p245
aVhttp://www.bnext.com.tw/article/view/id/7034
p246
aVhttp://www.bnext.com.tw/article/view/id/7033
p247
aVhttp://www.bnext.com.tw/article/view/id/8008
p248
aasS'ground_input'
p249
(lp250
S'http://www.bnext.com.tw/categories/internet/'
p251
aS'http://www.bnext.com.tw/categories/tech/'
p252
aS'http://www.bnext.com.tw/categories/marketing/'
p253
aS'http://www.bnext.com.tw/categories/startup/'
p254
aS'http://www.bnext.com.tw/categories/people/'
p255
aS'http://www.bnext.com.tw/categories/skill/'
p256
asS'generating_time'
p257
cdatetime
datetime
p258
(S'\x07\xe0\x01\x14\x11/#\x08\xcd\xe8'
p259
tp260
Rp261
s.